target datalayout = "e-m:e-p270:32:32-p271:32:32-p272:64:64-i64:64-i128:128-f80:128-n8:16:32:64-S128"
target triple = "x86_64-pc-linux-gnu"

%struct.GetByteContext = type { ptr, ptr, ptr }
%struct.WavpackFrameContext = type { ptr, i32, i32, i32, i32, i32, %struct.GetBitContext, i32, i32, %struct.GetBitContext, i32, i32, [16 x %struct.Decorr], i32, i32, i32, i32, i32, i32, i32, i32, i32, i32, i32, i32, i32, i32, i32, [2 x %struct.WvChannel], %struct.GetByteContext, [256 x i32], [40960 x i8], [32 x [256 x i16]], [32 x [256 x i8]], [32 x ptr] }
%struct.GetBitContext = type { ptr, ptr, i32, i32, i32 }
%struct.Decorr = type { i32, i32, i32, i32, [8 x i32], [8 x i32], i32, i32 }
%struct.WvChannel = type { [3 x i32], i32, i32, i32, i32 }

@.str.40 = private unnamed_addr constant [11 x i8] c"CRC error\0A\00", align 1
@.str.41 = private unnamed_addr constant [22 x i8] c"Extra bits CRC error\0A\00", align 1

; Function Attrs: inlinehint nounwind uwtable
define internal i32 @wv_check_crc(ptr noundef %0, i32 noundef %1, i32 noundef %2) #4 {
  %4 = alloca i32, align 4
  %5 = alloca ptr, align 8
  %6 = alloca i32, align 4
  %7 = alloca i32, align 4
  store ptr %0, ptr %5, align 8, !tbaa !68
  store i32 %1, ptr %6, align 4, !tbaa !51
  store i32 %2, ptr %7, align 4, !tbaa !51
  %8 = load i32, ptr %6, align 4, !tbaa !51
  %9 = load ptr, ptr %5, align 8, !tbaa !68
  %10 = getelementptr inbounds nuw %struct.WavpackFrameContext, ptr %9, i32 0, i32 5
  %11 = load i32, ptr %10, align 8, !tbaa !89
  %12 = icmp ne i32 %8, %11
  br i1 %12, label %13, label %17

13:                                               ; preds = %3
  %14 = load ptr, ptr %5, align 8, !tbaa !68
  %15 = getelementptr inbounds nuw %struct.WavpackFrameContext, ptr %14, i32 0, i32 0
  %16 = load ptr, ptr %15, align 8, !tbaa !129
  call void (ptr, i32, ptr, ...) @av_log(ptr noundef %16, i32 noundef 16, ptr noundef @.str.40)
  store i32 -1094995529, ptr %4, align 4
  br label %33

17:                                               ; preds = %3
  %18 = load ptr, ptr %5, align 8, !tbaa !68
  %19 = getelementptr inbounds nuw %struct.WavpackFrameContext, ptr %18, i32 0, i32 7
  %20 = load i32, ptr %19, align 8, !tbaa !77
  %21 = icmp ne i32 %20, 0
  br i1 %21, label %22, label %32

22:                                               ; preds = %17
  %23 = load i32, ptr %7, align 4, !tbaa !51
  %24 = load ptr, ptr %5, align 8, !tbaa !68
  %25 = getelementptr inbounds nuw %struct.WavpackFrameContext, ptr %24, i32 0, i32 8
  %26 = load i32, ptr %25, align 4, !tbaa !117
  %27 = icmp ne i32 %23, %26
  br i1 %27, label %28, label %32

28:                                               ; preds = %22
  %29 = load ptr, ptr %5, align 8, !tbaa !68
  %30 = getelementptr inbounds nuw %struct.WavpackFrameContext, ptr %29, i32 0, i32 0
  %31 = load ptr, ptr %30, align 8, !tbaa !129
  call void (ptr, i32, ptr, ...) @av_log(ptr noundef %31, i32 noundef 16, ptr noundef @.str.41)
  store i32 -1094995529, ptr %4, align 4
  br label %33

32:                                               ; preds = %22, %17
  store i32 0, ptr %4, align 4
  br label %33

33:                                               ; preds = %32, %28, %13
  %34 = load i32, ptr %4, align 4
  ret i32 %34
}