; Function Attrs: inlinehint nounwind uwtable
define internal fastcc range(i32 -1094995529, 1) i32 @wv_check_crc(ptr noundef readonly captures(none) %0, i32 noundef %1, i32 noundef %2) unnamed_addr #7 {
  %4 = getelementptr inbounds nuw i8, ptr %0, i64 24
  %5 = load i32, ptr %4, align 8, !tbaa !64
  %.not = icmp eq i32 %1, %5
  br i1 %.not, label %6, label %.sink.split

6:                                                ; preds = %3
  %7 = getelementptr inbounds nuw i8, ptr %0, i64 64
  %8 = load i32, ptr %7, align 8, !tbaa !49
  %.not7 = icmp eq i32 %8, 0
  br i1 %.not7, label %13, label %9

9:                                                ; preds = %6
  %10 = getelementptr inbounds nuw i8, ptr %0, i64 68
  %11 = load i32, ptr %10, align 4, !tbaa !103
  %.not8 = icmp eq i32 %2, %11
  br i1 %.not8, label %13, label %.sink.split

.sink.split:                                      ; preds = %9, %3
  %.str.41.sink = phi ptr [ @.str.40, %3 ], [ @.str.41, %9 ]
  %12 = load ptr, ptr %0, align 8, !tbaa !122
  tail call void (ptr, i32, ptr, ...) @av_log(ptr noundef %12, i32 noundef 16, ptr noundef nonnull %.str.41.sink) #12
  br label %13

13:                                               ; preds = %.sink.split, %6, %9
  %.0 = phi i32 [ 0, %9 ], [ 0, %6 ], [ -1094995529, %.sink.split ]
  ret i32 %.0
}